target datalayout = "e-m:e-p270:32:32-p271:32:32-p272:64:64-i64:64-i128:128-f80:128-n8:16:32:64-S128"
target triple = "x86_64-pc-linux-gnu"

%class.rcTempVector = type { %class.rcVectorBase }
%class.rcVectorBase = type { i64, i64, ptr }
%struct.rcNewTag = type { i8 }

@.str.41 = private unnamed_addr constant [28 x i8] c"min_capacity <= RC_SIZE_MAX\00", align 1
@.str.42 = private unnamed_addr constant [149 x i8] c"generated/home/dtcxzyw/WorkSpace/Projects/compilers/llvm-opt-benchmark/bench/recastnavigation/recastnavigation/Tests/../Recast/Include/RecastAlloc.h\00", align 1
@.str.43 = private unnamed_addr constant [57 x i8] c"RC_SIZE_MAX / static_cast<rcSizeType>(sizeof(T)) >= size\00", align 1

; Function Attrs: mustprogress uwtable
define linkonce_odr dso_local void @_ZN12rcVectorBaseIiL11rcAllocHint1EE10copy_rangeEPiPKiS4_(ptr noundef %0, ptr noundef %1, ptr noundef %2) #4 comdat align 2 {
  %4 = alloca ptr, align 8
  %5 = alloca ptr, align 8
  %6 = alloca ptr, align 8
  %7 = alloca i64, align 8
  store ptr %0, ptr %4, align 8
  store ptr %1, ptr %5, align 8
  store ptr %2, ptr %6, align 8
  store i64 0, ptr %7, align 8
  br label %8

8:                                                ; preds = %24, %3
  %9 = load i64, ptr %7, align 8
  %10 = load ptr, ptr %6, align 8
  %11 = load ptr, ptr %5, align 8
  %12 = ptrtoint ptr %10 to i64
  %13 = ptrtoint ptr %11 to i64
  %14 = sub i64 %12, %13
  %15 = sdiv exact i64 %14, 4
  %16 = icmp slt i64 %9, %15
  br i1 %16, label %17, label %27

17:                                               ; preds = %8
  %18 = load ptr, ptr %4, align 8
  %19 = load i64, ptr %7, align 8
  %20 = getelementptr inbounds i32, ptr %18, i64 %19
  %21 = load ptr, ptr %5, align 8
  %22 = load i64, ptr %7, align 8
  %23 = getelementptr inbounds i32, ptr %21, i64 %22
  call void @_ZN12rcVectorBaseIiL11rcAllocHint1EE9constructEPiRKi(ptr noundef %20, ptr noundef nonnull align 4 dereferenceable(4) %23)
  br label %24

24:                                               ; preds = %17
  %25 = load i64, ptr %7, align 8
  %26 = add nsw i64 %25, 1
  store i64 %26, ptr %7, align 8
  br label %8, !llvm.loop !29

27:                                               ; preds = %8
  ret void
}

; Function Attrs: mustprogress nounwind uwtable
define linkonce_odr dso_local noundef ptr @_ZnwmRK8rcNewTagPv(i64 noundef %0, ptr noundef nonnull align 1 dereferenceable(1) %1, ptr noundef %2) #0 comdat {
  %4 = alloca i64, align 8
  %5 = alloca ptr, align 8
  %6 = alloca ptr, align 8
  store i64 %0, ptr %4, align 8
  store ptr %1, ptr %5, align 8
  store ptr %2, ptr %6, align 8
  %7 = load ptr, ptr %6, align 8
  ret ptr %7
}

; Function Attrs: mustprogress nounwind uwtable
define linkonce_odr dso_local void @_ZN12rcVectorBaseIiL11rcAllocHint1EED2Ev(ptr noundef nonnull align 8 dereferenceable(24) %0) unnamed_addr #0 comdat align 2 personality ptr @__gxx_personality_v0 {
  %2 = alloca ptr, align 8
  store ptr %0, ptr %2, align 8
  %3 = load ptr, ptr %2, align 8
  %4 = getelementptr inbounds %class.rcVectorBase, ptr %3, i32 0, i32 0
  %5 = load i64, ptr %4, align 8
  invoke void @_ZN12rcVectorBaseIiL11rcAllocHint1EE13destroy_rangeEll(ptr noundef nonnull align 8 dereferenceable(24) %3, i64 noundef 0, i64 noundef %5)
          to label %6 unwind label %10

6:                                                ; preds = %1
  %7 = getelementptr inbounds %class.rcVectorBase, ptr %3, i32 0, i32 2
  %8 = load ptr, ptr %7, align 8
  invoke void @_Z6rcFreePv(ptr noundef %8)
          to label %9 unwind label %10

9:                                                ; preds = %6
  ret void

10:                                               ; preds = %6, %1
  %11 = landingpad { ptr, i32 }
          catch ptr null
  %12 = extractvalue { ptr, i32 } %11, 0
  call void @__clang_call_terminate(ptr %12) #12
  unreachable
}

; Function Attrs: mustprogress nounwind uwtable
define linkonce_odr dso_local void @_ZN12rcVectorBaseIiL11rcAllocHint1EE13destroy_rangeEll(ptr noundef nonnull align 8 dereferenceable(24) %0, i64 noundef %1, i64 noundef %2) #0 comdat align 2 {
  %4 = alloca ptr, align 8
  %5 = alloca i64, align 8
  %6 = alloca i64, align 8
  %7 = alloca i64, align 8
  store ptr %0, ptr %4, align 8
  store i64 %1, ptr %5, align 8
  store i64 %2, ptr %6, align 8
  %8 = load i64, ptr %5, align 8
  store i64 %8, ptr %7, align 8
  br label %9

9:                                                ; preds = %14, %3
  %10 = load i64, ptr %7, align 8
  %11 = load i64, ptr %6, align 8
  %12 = icmp slt i64 %10, %11
  br i1 %12, label %13, label %17

13:                                               ; preds = %9
  br label %14

14:                                               ; preds = %13
  %15 = load i64, ptr %7, align 8
  %16 = add nsw i64 %15, 1
  store i64 %16, ptr %7, align 8
  br label %9, !llvm.loop !19

17:                                               ; preds = %9
  ret void
}

; Function Attrs: mustprogress uwtable
define linkonce_odr dso_local noundef ptr @_ZN12rcVectorBaseIiL11rcAllocHint1EE17allocate_and_copyEl(ptr noundef nonnull align 8 dereferenceable(24) %0, i64 noundef %1) #4 comdat align 2 {
  %3 = alloca ptr, align 8
  %4 = alloca i64, align 8
  %5 = alloca ptr, align 8
  %6 = alloca ptr, align 8
  store ptr %0, ptr %3, align 8
  store i64 %1, ptr %4, align 8
  %7 = load ptr, ptr %3, align 8
  %8 = call noundef ptr @_Z21rcAssertFailGetCustomv()
  store ptr %8, ptr %5, align 8
  %9 = load ptr, ptr %5, align 8
  %10 = icmp eq ptr %9, null
  br i1 %10, label %11, label %12

11:                                               ; preds = %2
  br label %18

12:                                               ; preds = %2
  %13 = load i64, ptr %4, align 8
  %14 = icmp sge i64 2305843009213693951, %13
  br i1 %14, label %17, label %15

15:                                               ; preds = %12
  %16 = load ptr, ptr %5, align 8
  call void %16(ptr noundef @.str.43, ptr noundef @.str.42, i32 noundef 187)
  br label %17

17:                                               ; preds = %15, %12
  br label %18

18:                                               ; preds = %17, %11
  %19 = load i64, ptr %4, align 8
  %20 = mul i64 4, %19
  %21 = call noundef ptr @_Z7rcAllocm11rcAllocHint(i64 noundef %20, i32 noundef 1)
  store ptr %21, ptr %6, align 8
  %22 = load ptr, ptr %6, align 8
  %23 = icmp ne ptr %22, null
  br i1 %23, label %24, label %33

24:                                               ; preds = %18
  %25 = load ptr, ptr %6, align 8
  %26 = getelementptr inbounds %class.rcVectorBase, ptr %7, i32 0, i32 2
  %27 = load ptr, ptr %26, align 8
  %28 = getelementptr inbounds %class.rcVectorBase, ptr %7, i32 0, i32 2
  %29 = load ptr, ptr %28, align 8
  %30 = getelementptr inbounds %class.rcVectorBase, ptr %7, i32 0, i32 0
  %31 = load i64, ptr %30, align 8
  %32 = getelementptr inbounds i32, ptr %29, i64 %31
  call void @_ZN12rcVectorBaseIiL11rcAllocHint1EE10copy_rangeEPiPKiS4_(ptr noundef %25, ptr noundef %27, ptr noundef %32)
  br label %33

33:                                               ; preds = %24, %18
  %34 = load ptr, ptr %6, align 8
  ret ptr %34
}

; Function Attrs: mustprogress uwtable
define linkonce_odr dso_local noundef i64 @_ZN12rcVectorBaseIiL11rcAllocHint1EE16get_new_capacityEl(ptr noundef nonnull align 8 dereferenceable(24) %0, i64 noundef %1) #4 comdat align 2 {
  %3 = alloca i64, align 8
  %4 = alloca ptr, align 8
  %5 = alloca i64, align 8
  %6 = alloca ptr, align 8
  store ptr %0, ptr %4, align 8
  store i64 %1, ptr %5, align 8
  %7 = load ptr, ptr %4, align 8
  %8 = call noundef ptr @_Z21rcAssertFailGetCustomv()
  store ptr %8, ptr %6, align 8
  %9 = load ptr, ptr %6, align 8
  %10 = icmp eq ptr %9, null
  br i1 %10, label %11, label %12

11:                                               ; preds = %2
  br label %18

12:                                               ; preds = %2
  %13 = load i64, ptr %5, align 8
  %14 = icmp sle i64 %13, 9223372036854775807
  br i1 %14, label %17, label %15

15:                                               ; preds = %12
  %16 = load ptr, ptr %6, align 8
  call void %16(ptr noundef @.str.41, ptr noundef @.str.42, i32 noundef 224)
  br label %17

17:                                               ; preds = %15, %12
  br label %18

18:                                               ; preds = %17, %11
  %19 = getelementptr inbounds %class.rcVectorBase, ptr %7, i32 0, i32 1
  %20 = load i64, ptr %19, align 8
  %21 = icmp sge i64 %20, 4611686018427387903
  br i1 %21, label %22, label %23

22:                                               ; preds = %18
  store i64 9223372036854775807, ptr %3, align 8
  br label %37

23:                                               ; preds = %18
  %24 = getelementptr inbounds %class.rcVectorBase, ptr %7, i32 0, i32 1
  %25 = load i64, ptr %24, align 8
  %26 = mul nsw i64 2, %25
  %27 = load i64, ptr %5, align 8
  %28 = icmp sgt i64 %26, %27
  br i1 %28, label %29, label %33

29:                                               ; preds = %23
  %30 = getelementptr inbounds %class.rcVectorBase, ptr %7, i32 0, i32 1
  %31 = load i64, ptr %30, align 8
  %32 = mul nsw i64 2, %31
  br label %35

33:                                               ; preds = %23
  %34 = load i64, ptr %5, align 8
  br label %35

35:                                               ; preds = %33, %29
  %36 = phi i64 [ %32, %29 ], [ %34, %33 ]
  store i64 %36, ptr %3, align 8
  br label %37

37:                                               ; preds = %35, %22
  %38 = load i64, ptr %3, align 8
  ret i64 %38
}

; Function Attrs: mustprogress uwtable
define linkonce_odr dso_local void @_ZN12rcVectorBaseIiL11rcAllocHint1EE9constructEPiRKi(ptr noundef %0, ptr noundef nonnull align 4 dereferenceable(4) %1) #4 comdat align 2 {
  %3 = alloca ptr, align 8
  %4 = alloca ptr, align 8
  %5 = alloca %struct.rcNewTag, align 1
  store ptr %0, ptr %3, align 8
  store ptr %1, ptr %4, align 8
  %6 = load ptr, ptr %3, align 8
  %7 = call noundef ptr @_ZnwmRK8rcNewTagPv(i64 noundef 4, ptr noundef nonnull align 1 dereferenceable(1) %5, ptr noundef %6)
  %8 = load ptr, ptr %4, align 8
  %9 = load i32, ptr %8, align 4
  store i32 %9, ptr %7, align 4
  ret void
}

; Function Attrs: mustprogress nounwind uwtable
define linkonce_odr dso_local void @_ZN12rcVectorBaseIiL11rcAllocHint1EEC2Ev(ptr noundef nonnull align 8 dereferenceable(24) %0) unnamed_addr #0 comdat align 2 {
  %2 = alloca ptr, align 8
  store ptr %0, ptr %2, align 8
  %3 = load ptr, ptr %2, align 8
  %4 = getelementptr inbounds %class.rcVectorBase, ptr %3, i32 0, i32 0
  store i64 0, ptr %4, align 8
  %5 = getelementptr inbounds %class.rcVectorBase, ptr %3, i32 0, i32 1
  store i64 0, ptr %5, align 8
  %6 = getelementptr inbounds %class.rcVectorBase, ptr %3, i32 0, i32 2
  store ptr null, ptr %6, align 8
  ret void
}

; Function Attrs: mustprogress nounwind uwtable
define linkonce_odr dso_local void @_Z13DoNotOptimizeIiEvPT_(ptr noundef %0) #0 comdat {
  %2 = alloca ptr, align 8
  store ptr %0, ptr %2, align 8
  %3 = load ptr, ptr %2, align 8
  %4 = call ptr asm sideeffect "", "=r,0,~{dirflag},~{fpsr},~{flags}"(ptr %3) #11, !srcloc !7
  store ptr %4, ptr %2, align 8
  ret void
}

; Function Attrs: mustprogress nounwind uwtable
define linkonce_odr dso_local noundef ptr @_ZN12rcVectorBaseIiL11rcAllocHint1EE4dataEv(ptr noundef nonnull align 8 dereferenceable(24) %0) #0 comdat align 2 {
  %2 = alloca ptr, align 8
  store ptr %0, ptr %2, align 8
  %3 = load ptr, ptr %2, align 8
  %4 = getelementptr inbounds %class.rcVectorBase, ptr %3, i32 0, i32 2
  %5 = load ptr, ptr %4, align 8
  ret ptr %5
}

; Function Attrs: mustprogress nounwind uwtable
define linkonce_odr dso_local void @_ZN12rcTempVectorIiED2Ev(ptr noundef nonnull align 8 dereferenceable(24) %0) unnamed_addr #0 comdat align 2 {
  %2 = alloca ptr, align 8
  store ptr %0, ptr %2, align 8
  %3 = load ptr, ptr %2, align 8
  call void @_ZN12rcVectorBaseIiL11rcAllocHint1EED2Ev(ptr noundef nonnull align 8 dereferenceable(24) %3) #11
  ret void
}

; Function Attrs: mustprogress uwtable
define linkonce_odr dso_local void @_ZN12rcVectorBaseIiL11rcAllocHint1EE9push_backERKi(ptr noundef nonnull align 8 dereferenceable(24) %0, ptr noundef nonnull align 4 dereferenceable(4) %1) #4 comdat align 2 {
  %3 = alloca ptr, align 8
  %4 = alloca ptr, align 8
  %5 = alloca i64, align 8
  %6 = alloca ptr, align 8
  store ptr %0, ptr %3, align 8
  store ptr %1, ptr %4, align 8
  %7 = load ptr, ptr %3, align 8
  %8 = getelementptr inbounds %class.rcVectorBase, ptr %7, i32 0, i32 0
  %9 = load i64, ptr %8, align 8
  %10 = getelementptr inbounds %class.rcVectorBase, ptr %7, i32 0, i32 1
  %11 = load i64, ptr %10, align 8
  %12 = icmp slt i64 %9, %11
  br i1 %12, label %13, label %21

13:                                               ; preds = %2
  %14 = getelementptr inbounds %class.rcVectorBase, ptr %7, i32 0, i32 2
  %15 = load ptr, ptr %14, align 8
  %16 = getelementptr inbounds %class.rcVectorBase, ptr %7, i32 0, i32 0
  %17 = load i64, ptr %16, align 8
  %18 = add nsw i64 %17, 1
  store i64 %18, ptr %16, align 8
  %19 = getelementptr inbounds i32, ptr %15, i64 %17
  %20 = load ptr, ptr %4, align 8
  call void @_ZN12rcVectorBaseIiL11rcAllocHint1EE9constructEPiRKi(ptr noundef %19, ptr noundef nonnull align 4 dereferenceable(4) %20)
  br label %44

21:                                               ; preds = %2
  %22 = getelementptr inbounds %class.rcVectorBase, ptr %7, i32 0, i32 1
  %23 = load i64, ptr %22, align 8
  %24 = add nsw i64 %23, 1
  %25 = call noundef i64 @_ZN12rcVectorBaseIiL11rcAllocHint1EE16get_new_capacityEl(ptr noundef nonnull align 8 dereferenceable(24) %7, i64 noundef %24)
  store i64 %25, ptr %5, align 8
  %26 = load i64, ptr %5, align 8
  %27 = call noundef ptr @_ZN12rcVectorBaseIiL11rcAllocHint1EE17allocate_and_copyEl(ptr noundef nonnull align 8 dereferenceable(24) %7, i64 noundef %26)
  store ptr %27, ptr %6, align 8
  %28 = load ptr, ptr %6, align 8
  %29 = getelementptr inbounds %class.rcVectorBase, ptr %7, i32 0, i32 0
  %30 = load i64, ptr %29, align 8
  %31 = getelementptr inbounds i32, ptr %28, i64 %30
  %32 = load ptr, ptr %4, align 8
  call void @_ZN12rcVectorBaseIiL11rcAllocHint1EE9constructEPiRKi(ptr noundef %31, ptr noundef nonnull align 4 dereferenceable(4) %32)
  %33 = getelementptr inbounds %class.rcVectorBase, ptr %7, i32 0, i32 0
  %34 = load i64, ptr %33, align 8
  call void @_ZN12rcVectorBaseIiL11rcAllocHint1EE13destroy_rangeEll(ptr noundef nonnull align 8 dereferenceable(24) %7, i64 noundef 0, i64 noundef %34)
  %35 = getelementptr inbounds %class.rcVectorBase, ptr %7, i32 0, i32 0
  %36 = load i64, ptr %35, align 8
  %37 = add nsw i64 %36, 1
  store i64 %37, ptr %35, align 8
  %38 = load i64, ptr %5, align 8
  %39 = getelementptr inbounds %class.rcVectorBase, ptr %7, i32 0, i32 1
  store i64 %38, ptr %39, align 8
  %40 = getelementptr inbounds %class.rcVectorBase, ptr %7, i32 0, i32 2
  %41 = load ptr, ptr %40, align 8
  call void @_Z6rcFreePv(ptr noundef %41)
  %42 = load ptr, ptr %6, align 8
  %43 = getelementptr inbounds %class.rcVectorBase, ptr %7, i32 0, i32 2
  store ptr %42, ptr %43, align 8
  br label %44

44:                                               ; preds = %21, %13
  ret void
}

; Function Attrs: mustprogress uwtable
define linkonce_odr dso_local void @_ZN12rcTempVectorIiEC2Ev(ptr noundef nonnull align 8 dereferenceable(24) %0) unnamed_addr #4 comdat align 2 {
  %2 = alloca ptr, align 8
  store ptr %0, ptr %2, align 8
  %3 = load ptr, ptr %2, align 8
  call void @_ZN12rcVectorBaseIiL11rcAllocHint1EEC2Ev(ptr noundef nonnull align 8 dereferenceable(24) %3)
  ret void
}

; Function Attrs: mustprogress uwtable
define dso_local void @_ZN16BM_rcVector_Push4BodyEv() #4 align 2 personality ptr @__gxx_personality_v0 {
  %1 = alloca %class.rcTempVector, align 8
  %2 = alloca i32, align 4
  %3 = alloca i32, align 4
  %4 = alloca ptr, align 8
  %5 = alloca i32, align 4
  call void @_ZN12rcTempVectorIiEC2Ev(ptr noundef nonnull align 8 dereferenceable(24) %1)
  store i32 0, ptr %2, align 4
  br label %6

6:                                                ; preds = %12, %0
  %7 = load i32, ptr %2, align 4
  %8 = sext i32 %7 to i64
  %9 = icmp slt i64 %8, 100000
  br i1 %9, label %10, label %19

10:                                               ; preds = %6
  store i32 2, ptr %3, align 4
  invoke void @_ZN12rcVectorBaseIiL11rcAllocHint1EE9push_backERKi(ptr noundef nonnull align 8 dereferenceable(24) %1, ptr noundef nonnull align 4 dereferenceable(4) %3)
          to label %11 unwind label %15

11:                                               ; preds = %10
  br label %12

12:                                               ; preds = %11
  %13 = load i32, ptr %2, align 4
  %14 = add nsw i32 %13, 1
  store i32 %14, ptr %2, align 4
  br label %6, !llvm.loop !9

15:                                               ; preds = %21, %19, %10
  %16 = landingpad { ptr, i32 }
          cleanup
  %17 = extractvalue { ptr, i32 } %16, 0
  store ptr %17, ptr %4, align 8
  %18 = extractvalue { ptr, i32 } %16, 1
  store i32 %18, ptr %5, align 4
  call void @_ZN12rcTempVectorIiED2Ev(ptr noundef nonnull align 8 dereferenceable(24) %1) #11
  br label %23

19:                                               ; preds = %6
  %20 = invoke noundef ptr @_ZN12rcVectorBaseIiL11rcAllocHint1EE4dataEv(ptr noundef nonnull align 8 dereferenceable(24) %1)
          to label %21 unwind label %15

21:                                               ; preds = %19
  invoke void @_Z13DoNotOptimizeIiEvPT_(ptr noundef %20)
          to label %22 unwind label %15

22:                                               ; preds = %21
  call void @_ZN12rcTempVectorIiED2Ev(ptr noundef nonnull align 8 dereferenceable(24) %1) #11
  ret void

23:                                               ; preds = %15
  %24 = load ptr, ptr %4, align 8
  %25 = load i32, ptr %5, align 4
  %26 = insertvalue { ptr, i32 } poison, ptr %24, 0
  %27 = insertvalue { ptr, i32 } %26, i32 %25, 1
  resume { ptr, i32 } %27
}