; Function Attrs: mustprogress uwtable
define dso_local void @_ZN16BM_rcVector_Push4BodyEv() local_unnamed_addr #3 align 2 personality ptr @__gxx_personality_v0 {
  br label %1

1:                                                ; preds = %0, %_ZN12rcVectorBaseIiL11rcAllocHint1EE9push_backERKi.exit
  %.sroa.0.023 = phi i64 [ 0, %0 ], [ %.sroa.0.1, %_ZN12rcVectorBaseIiL11rcAllocHint1EE9push_backERKi.exit ]
  %.sroa.10.022 = phi ptr [ null, %0 ], [ %.sroa.10.1, %_ZN12rcVectorBaseIiL11rcAllocHint1EE9push_backERKi.exit ]
  %.sroa.7.021 = phi i64 [ 0, %0 ], [ %.sroa.7.1, %_ZN12rcVectorBaseIiL11rcAllocHint1EE9push_backERKi.exit ]
  %2 = icmp slt i64 %.sroa.0.023, %.sroa.7.021
  br i1 %2, label %3, label %5

3:                                                ; preds = %1
  %4 = getelementptr inbounds nuw i32, ptr %.sroa.10.022, i64 %.sroa.0.023
  store i32 2, ptr %4, align 4
  br label %_ZN12rcVectorBaseIiL11rcAllocHint1EE9push_backERKi.exit

5:                                                ; preds = %1
  %6 = invoke noundef ptr @_Z21rcAssertFailGetCustomv()
          to label %.noexc unwind label %21

.noexc:                                           ; preds = %5
  %7 = add nsw i64 %.sroa.7.021, 1
  %8 = shl nsw i64 %.sroa.7.021, 1
  %..i.i = tail call i64 @llvm.smax.i64(i64 %8, i64 %7)
  %9 = invoke noundef ptr @_Z21rcAssertFailGetCustomv()
          to label %.noexc3 unwind label %21

.noexc3:                                          ; preds = %.noexc
  %10 = icmp eq ptr %9, null
  %11 = icmp slt i64 %..i.i, 2305843009213693952
  %or.cond.i.i = or i1 %11, %10
  br i1 %or.cond.i.i, label %.noexc4, label %12

12:                                               ; preds = %.noexc3
  invoke void %9(ptr noundef nonnull @.str.43, ptr noundef nonnull @.str.42, i32 noundef 187)
          to label %.noexc4 unwind label %21

.noexc4:                                          ; preds = %12, %.noexc3
  %13 = shl i64 %..i.i, 2
  %14 = invoke noundef ptr @_Z7rcAllocm11rcAllocHint(i64 noundef %13, i32 noundef 1)
          to label %.noexc5 unwind label %21

.noexc5:                                          ; preds = %.noexc4
  %.not.i.i = icmp ne ptr %14, null
  %15 = icmp ne i64 %.sroa.0.023, 0
  %or.cond = and i1 %.not.i.i, %15
  br i1 %or.cond, label %.lr.ph.i.i.i, label %_ZN12rcVectorBaseIiL11rcAllocHint1EE17allocate_and_copyEl.exit.i

.lr.ph.i.i.i:                                     ; preds = %.noexc5, %.lr.ph.i.i.i
  %.07.i.i.i = phi i64 [ %19, %.lr.ph.i.i.i ], [ 0, %.noexc5 ]
  %16 = getelementptr inbounds nuw i32, ptr %14, i64 %.07.i.i.i
  %17 = getelementptr inbounds nuw i32, ptr %.sroa.10.022, i64 %.07.i.i.i
  %18 = load i32, ptr %17, align 4
  store i32 %18, ptr %16, align 4
  %19 = add nuw nsw i64 %.07.i.i.i, 1
  %exitcond.not.i.i.i = icmp eq i64 %19, %.sroa.0.023
  br i1 %exitcond.not.i.i.i, label %_ZN12rcVectorBaseIiL11rcAllocHint1EE17allocate_and_copyEl.exit.i, label %.lr.ph.i.i.i, !llvm.loop !10

_ZN12rcVectorBaseIiL11rcAllocHint1EE17allocate_and_copyEl.exit.i: ; preds = %.lr.ph.i.i.i, %.noexc5
  %20 = getelementptr inbounds nuw i32, ptr %14, i64 %.sroa.0.023
  store i32 2, ptr %20, align 4
  invoke void @_Z6rcFreePv(ptr noundef %.sroa.10.022)
          to label %_ZN12rcVectorBaseIiL11rcAllocHint1EE9push_backERKi.exit unwind label %21

_ZN12rcVectorBaseIiL11rcAllocHint1EE9push_backERKi.exit: ; preds = %3, %_ZN12rcVectorBaseIiL11rcAllocHint1EE17allocate_and_copyEl.exit.i
  %.sroa.7.1 = phi i64 [ %.sroa.7.021, %3 ], [ %..i.i, %_ZN12rcVectorBaseIiL11rcAllocHint1EE17allocate_and_copyEl.exit.i ]
  %.sroa.10.1 = phi ptr [ %.sroa.10.022, %3 ], [ %14, %_ZN12rcVectorBaseIiL11rcAllocHint1EE17allocate_and_copyEl.exit.i ]
  %.sroa.0.1 = add nuw nsw i64 %.sroa.0.023, 1
  %exitcond.not = icmp eq i64 %.sroa.0.1, 100000
  br i1 %exitcond.not, label %26, label %1, !llvm.loop !11

21:                                               ; preds = %_ZN12rcVectorBaseIiL11rcAllocHint1EE17allocate_and_copyEl.exit.i, %.noexc4, %12, %.noexc, %5
  %22 = landingpad { ptr, i32 }
          cleanup
  invoke void @_Z6rcFreePv(ptr noundef %.sroa.10.022)
          to label %_ZN12rcTempVectorIiED2Ev.exit unwind label %23

23:                                               ; preds = %21
  %24 = landingpad { ptr, i32 }
          catch ptr null
  %25 = extractvalue { ptr, i32 } %24, 0
  tail call void @__clang_call_terminate(ptr %25) #17
  unreachable

_ZN12rcTempVectorIiED2Ev.exit:                    ; preds = %21
  resume { ptr, i32 } %22

26:                                               ; preds = %_ZN12rcVectorBaseIiL11rcAllocHint1EE9push_backERKi.exit
  %27 = tail call ptr asm sideeffect "", "=r,0,~{dirflag},~{fpsr},~{flags}"(ptr nonnull %.sroa.10.1) #16, !srcloc !7
  invoke void @_Z6rcFreePv(ptr noundef nonnull %.sroa.10.1)
          to label %_ZN12rcTempVectorIiED2Ev.exit7 unwind label %28

28:                                               ; preds = %26
  %29 = landingpad { ptr, i32 }
          catch ptr null
  %30 = extractvalue { ptr, i32 } %29, 0
  tail call void @__clang_call_terminate(ptr %30) #17
  unreachable

_ZN12rcTempVectorIiED2Ev.exit7:                   ; preds = %26
  ret void
}